; Function Attrs: nounwind uwtable
define internal range(i32 0, 2) i32 @check_protected_legacy_PEM(ptr noundef %0, i32 noundef %1, ptr noundef %2, ptr noundef %3, i64 %4) #1 {
  %6 = tail call i32 (ptr, i64, ptr, ...) @BIO_snprintf(ptr noundef nonnull @check_protected_legacy_PEM.expected_pem_header, i64 noundef 80, ptr noundef nonnull @.str.335, ptr noundef %2) #8
  %7 = tail call i32 @test_int_gt(ptr noundef %0, i32 noundef %1, ptr noundef nonnull @.str.334, ptr noundef nonnull @.str.298, i32 noundef %6, i32 noundef 0) #8
  %.not = icmp eq i32 %7, 0
  br i1 %.not, label %16, label %8

8:                                                ; preds = %5
  %9 = tail call i64 @strlen(ptr noundef nonnull dereferenceable(1) @check_protected_legacy_PEM.expected_pem_header) #9
  %10 = tail call i32 @test_strn_eq(ptr noundef %0, i32 noundef %1, ptr noundef nonnull @.str.322, ptr noundef nonnull @.str.323, ptr noundef %3, i64 noundef %9, ptr noundef nonnull @check_protected_legacy_PEM.expected_pem_header, i64 noundef %9) #8
  %.not8 = icmp eq i32 %10, 0
  br i1 %.not8, label %16, label %11

11:                                               ; preds = %8
  %12 = tail call ptr @strstr(ptr noundef nonnull dereferenceable(1) %3, ptr noundef nonnull dereferenceable(1) @.str.337) #9
  %13 = tail call i32 @test_ptr(ptr noundef %0, i32 noundef %1, ptr noundef nonnull @.str.336, ptr noundef %12) #8
  %14 = icmp ne i32 %13, 0
  %15 = zext i1 %14 to i32
  br label %16

16:                                               ; preds = %11, %8, %5
  %17 = phi i32 [ 0, %8 ], [ 0, %5 ], [ %15, %11 ]
  ret i32 %17
}